target datalayout = "e-m:e-p270:32:32-p271:32:32-p272:64:64-i64:64-i128:128-f80:128-n8:16:32:64-S128"
target triple = "x86_64-pc-linux-gnu"

%struct._zend_mm_heap = type { i32, ptr, i64, i64, [30 x ptr], i64, i64, i64, i32, ptr, ptr, ptr, i32, i32, i32, double, i32, i32, %struct.anon, ptr }
%struct.anon = type { ptr, ptr, ptr }

; Function Attrs: nounwind uwtable
define void @zend_mm_get_custom_handlers(ptr noundef %0, ptr noundef %1, ptr noundef %2, ptr noundef %3) #0 {
  %5 = alloca ptr, align 8
  %6 = alloca ptr, align 8
  %7 = alloca ptr, align 8
  %8 = alloca ptr, align 8
  %9 = alloca ptr, align 8
  store ptr %0, ptr %5, align 8
  store ptr %1, ptr %6, align 8
  store ptr %2, ptr %7, align 8
  store ptr %3, ptr %8, align 8
  %10 = load ptr, ptr %5, align 8
  store ptr %10, ptr %9, align 8
  %11 = load ptr, ptr %5, align 8
  %12 = getelementptr inbounds %struct._zend_mm_heap, ptr %11, i32 0, i32 0
  %13 = load i32, ptr %12, align 8
  %14 = icmp ne i32 %13, 0
  br i1 %14, label %15, label %31

15:                                               ; preds = %4
  %16 = load ptr, ptr %9, align 8
  %17 = getelementptr inbounds %struct._zend_mm_heap, ptr %16, i32 0, i32 18
  %18 = getelementptr inbounds %struct.anon, ptr %17, i32 0, i32 0
  %19 = load ptr, ptr %18, align 8
  %20 = load ptr, ptr %6, align 8
  store ptr %19, ptr %20, align 8
  %21 = load ptr, ptr %9, align 8
  %22 = getelementptr inbounds %struct._zend_mm_heap, ptr %21, i32 0, i32 18
  %23 = getelementptr inbounds %struct.anon, ptr %22, i32 0, i32 1
  %24 = load ptr, ptr %23, align 8
  %25 = load ptr, ptr %7, align 8
  store ptr %24, ptr %25, align 8
  %26 = load ptr, ptr %9, align 8
  %27 = getelementptr inbounds %struct._zend_mm_heap, ptr %26, i32 0, i32 18
  %28 = getelementptr inbounds %struct.anon, ptr %27, i32 0, i32 2
  %29 = load ptr, ptr %28, align 8
  %30 = load ptr, ptr %8, align 8
  store ptr %29, ptr %30, align 8
  br label %35

31:                                               ; preds = %4
  %32 = load ptr, ptr %6, align 8
  store ptr null, ptr %32, align 8
  %33 = load ptr, ptr %7, align 8
  store ptr null, ptr %33, align 8
  %34 = load ptr, ptr %8, align 8
  store ptr null, ptr %34, align 8
  br label %35

35:                                               ; preds = %31, %15
  ret void
}