; Function Attrs: mustprogress nofree norecurse nosync nounwind willreturn memory(argmem: readwrite) uwtable
define void @zend_mm_get_custom_handlers(ptr nocapture noundef readonly %0, ptr nocapture noundef writeonly %1, ptr nocapture noundef writeonly %2, ptr nocapture noundef writeonly %3) local_unnamed_addr #20 {
  %5 = load i32, ptr %0, align 8
  %.not = icmp eq i32 %5, 0
  br i1 %.not, label %13, label %6

6:                                                ; preds = %4
  %7 = getelementptr inbounds i8, ptr %0, i64 360
  %8 = load ptr, ptr %7, align 8
  store ptr %8, ptr %1, align 8
  %9 = getelementptr inbounds i8, ptr %0, i64 368
  %10 = load ptr, ptr %9, align 8
  store ptr %10, ptr %2, align 8
  %11 = getelementptr inbounds i8, ptr %0, i64 376
  %12 = load ptr, ptr %11, align 8
  br label %14

13:                                               ; preds = %4
  store ptr null, ptr %1, align 8
  store ptr null, ptr %2, align 8
  br label %14

14:                                               ; preds = %13, %6
  %storemerge = phi ptr [ null, %13 ], [ %12, %6 ]
  store ptr %storemerge, ptr %3, align 8
  ret void
}